target datalayout = "e-m:e-p270:32:32-p271:32:32-p272:64:64-i64:64-i128:128-f80:128-n8:16:32:64-S128"
target triple = "x86_64-pc-linux-gnu"

%struct.Curl_ssl = type { %struct.curl_ssl_backend, i32, i64, ptr, ptr, ptr, ptr, ptr, ptr, ptr, ptr, ptr, ptr, ptr, ptr, ptr, ptr, ptr, ptr, ptr, ptr, ptr, ptr, ptr, ptr, ptr, ptr, ptr }
%struct.curl_ssl_backend = type { i32, ptr }
%struct.Curl_easy = type { i32, i64, ptr, ptr, ptr, %struct.Curl_llist_element, %struct.Curl_llist_element, i32, i32, %struct.Curl_message, %struct.easy_pollset, %struct.Names, ptr, ptr, ptr, %struct.SingleRequest, %struct.UserDefined, ptr, ptr, %struct.Progress, %struct.UrlState, ptr, %struct.PureInfo, %struct.curl_tlssessioninfo }
%struct.Curl_llist_element = type { ptr, ptr, ptr }
%struct.Curl_message = type { %struct.Curl_llist_element, %struct.CURLMsg }
%struct.CURLMsg = type { i32, ptr, %union.anon }
%union.anon = type { ptr }
%struct.easy_pollset = type { [5 x i32], i32, [5 x i8] }
%struct.Names = type { ptr, i32 }
%struct.SingleRequest = type <{ i64, i64, i64, i64, i64, %struct.curltime, i32, i32, i32, i32, i64, i32, i32, %struct.curltime, i32, i32, ptr, i64, i64, ptr, ptr, i64, ptr, %union.anon.0, ptr, [2 x i8], i8, i16, [3 x i8] }>
%struct.curltime = type { i64, i32 }
%union.anon.0 = type { ptr }
%struct.UserDefined = type <{ ptr, ptr, ptr, ptr, ptr, ptr, i16, [6 x i8], i64, i64, i64, ptr, ptr, i64, i16, i16, [4 x i8], ptr, ptr, ptr, ptr, ptr, ptr, ptr, ptr, ptr, ptr, ptr, ptr, ptr, ptr, ptr, ptr, ptr, ptr, ptr, ptr, ptr, ptr, ptr, i32, i32, i32, i32, i64, i64, i64, i64, i64, i64, i64, i64, ptr, ptr, %struct.curl_mimepart, ptr, ptr, i64, i8, i8, i8, [5 x i8], %struct.ssl_config_data, %struct.ssl_config_data, ptr, i16, i8, i8, [4 x i8], %struct.ssl_general_config, i32, i32, i32, [4 x i8], ptr, ptr, i8, [7 x i8], i64, i8, i8, i8, i8, i32, ptr, ptr, ptr, i8, i8, [2 x i8], i32, [80 x ptr], [8 x ptr], i32, i32, i32, [4 x i8], ptr, ptr, ptr, ptr, ptr, i8, [3 x i8], i32, i32, [4 x i8], i64, %struct.Curl_data_priority, ptr, ptr, i64, ptr, ptr, ptr, ptr, ptr, i8, [3 x i8], i32, i8, i8, i56, [6 x i8] }>
%struct.curl_mimepart = type { ptr, ptr, i32, i32, ptr, ptr, ptr, ptr, ptr, ptr, ptr, ptr, ptr, ptr, ptr, i64, %struct.mime_state, ptr, %struct.mime_encoder_state, i64 }
%struct.mime_state = type { i32, ptr, i64 }
%struct.mime_encoder_state = type { i64, i64, i64, [256 x i8] }
%struct.ssl_config_data = type { %struct.ssl_primary_config, i64, ptr, ptr, ptr, ptr, ptr, ptr, ptr, i8 }
%struct.ssl_primary_config = type { ptr, ptr, ptr, ptr, ptr, ptr, ptr, ptr, ptr, ptr, ptr, ptr, i8, i32, i8, i8 }
%struct.ssl_general_config = type { i64, i32 }
%struct.Curl_data_priority = type { ptr, ptr, i32, i8 }
%struct.Progress = type { i64, i64, i64, i64, i64, i64, i32, i32, i64, i64, i64, i64, i64, i64, i64, i64, i64, i64, %struct.curltime, %struct.curltime, %struct.curltime, %struct.curltime, %struct.curltime, i64, %struct.curltime, i64, [6 x i64], [6 x %struct.curltime], i32, i8 }
%struct.UrlState = type { ptr, %struct.curltime, i64, i64, %struct.dynbuf, ptr, ptr, ptr, i64, ptr, i32, i32, i32, ptr, i64, [3 x %struct.tempbuf], i32, i32, ptr, i64, i32, ptr, %struct.digestdata, %struct.digestdata, %struct.auth, %struct.auth, %struct.Curl_async, ptr, %struct.curltime, %struct.Curl_tree, %struct.Curl_llist, [15 x %struct.time_node], ptr, i8, i64, ptr, i64, i64, %struct.Curl_data_priority, ptr, ptr, ptr, %struct.urlpieces, ptr, ptr, ptr, ptr, ptr, i64, %struct.dynbuf, %struct.Curl_llist, [2 x %struct.curl_header], ptr, i32, ptr, %struct.dynamically_allocated_data, i8, i8, i8, i8, i24 }
%struct.tempbuf = type { %struct.dynbuf, i32, i8 }
%struct.digestdata = type { ptr, ptr, ptr, ptr, ptr, ptr, i32, i8, i8 }
%struct.auth = type { i64, i64, i64, i8 }
%struct.Curl_async = type { ptr, ptr, ptr, ptr, i32, i32, i8 }
%struct.Curl_tree = type { ptr, ptr, ptr, ptr, %struct.curltime, ptr }
%struct.time_node = type { %struct.Curl_llist_element, %struct.curltime, i32 }
%struct.urlpieces = type { ptr, ptr, ptr, ptr, ptr, ptr, ptr, ptr }
%struct.dynbuf = type { ptr, i64, i64, i64 }
%struct.Curl_llist = type { ptr, ptr, ptr, i64 }
%struct.curl_header = type { ptr, ptr, i64, i64, i32, ptr }
%struct.dynamically_allocated_data = type { ptr, ptr, ptr, ptr, ptr, ptr, ptr, ptr, ptr, ptr, ptr, ptr, ptr, ptr }
%struct.PureInfo = type { i32, i32, i32, i64, i64, i64, i64, i64, ptr, ptr, i64, i32, [46 x i8], i32, i32, [46 x i8], i32, ptr, i32, %struct.curl_certinfo, i32, i8 }
%struct.curl_certinfo = type { i32, ptr }
%struct.curl_tlssessioninfo = type { i32, ptr }
%struct.Curl_share = type { i32, i32, i32, ptr, ptr, ptr, %struct.conncache, %struct.Curl_hash, ptr, ptr, ptr, i64, i64 }
%struct.conncache = type { %struct.Curl_hash, i64, i64, i64, %struct.curltime, ptr }
%struct.Curl_hash = type { ptr, ptr, ptr, ptr, i32, i64 }
%struct.Curl_ssl_session = type { ptr, ptr, ptr, ptr, i64, i64, i32, i32, %struct.ssl_primary_config }

@Curl_ssl = dso_local global ptr @Curl_ssl_openssl, align 8
@Curl_cfree = external global ptr, align 8

; Function Attrs: nounwind uwtable
define dso_local void @Curl_ssl_close_all(ptr noundef %0) #0 {
  %2 = alloca ptr, align 8
  %3 = alloca i64, align 8
  store ptr %0, ptr %2, align 8
  %4 = load ptr, ptr %2, align 8
  %5 = getelementptr inbounds %struct.Curl_easy, ptr %4, i32 0, i32 20
  %6 = getelementptr inbounds %struct.UrlState, ptr %5, i32 0, i32 13
  %7 = load ptr, ptr %6, align 8
  %8 = icmp ne ptr %7, null
  br i1 %8, label %9, label %52

9:                                                ; preds = %1
  %10 = load ptr, ptr %2, align 8
  %11 = getelementptr inbounds %struct.Curl_easy, ptr %10, i32 0, i32 14
  %12 = load ptr, ptr %11, align 8
  %13 = icmp ne ptr %12, null
  br i1 %13, label %14, label %22

14:                                               ; preds = %9
  %15 = load ptr, ptr %2, align 8
  %16 = getelementptr inbounds %struct.Curl_easy, ptr %15, i32 0, i32 14
  %17 = load ptr, ptr %16, align 8
  %18 = getelementptr inbounds %struct.Curl_share, ptr %17, i32 0, i32 1
  %19 = load i32, ptr %18, align 4
  %20 = and i32 %19, 16
  %21 = icmp ne i32 %20, 0
  br i1 %21, label %52, label %22

22:                                               ; preds = %14, %9
  store i64 0, ptr %3, align 8
  br label %23

23:                                               ; preds = %38, %22
  %24 = load i64, ptr %3, align 8
  %25 = load ptr, ptr %2, align 8
  %26 = getelementptr inbounds %struct.Curl_easy, ptr %25, i32 0, i32 16
  %27 = getelementptr inbounds %struct.UserDefined, ptr %26, i32 0, i32 69
  %28 = getelementptr inbounds %struct.ssl_general_config, ptr %27, i32 0, i32 0
  %29 = load i64, ptr %28, align 8
  %30 = icmp ult i64 %24, %29
  br i1 %30, label %31, label %41

31:                                               ; preds = %23
  %32 = load ptr, ptr %2, align 8
  %33 = getelementptr inbounds %struct.Curl_easy, ptr %32, i32 0, i32 20
  %34 = getelementptr inbounds %struct.UrlState, ptr %33, i32 0, i32 13
  %35 = load ptr, ptr %34, align 8
  %36 = load i64, ptr %3, align 8
  %37 = getelementptr inbounds %struct.Curl_ssl_session, ptr %35, i64 %36
  call void @Curl_ssl_kill_session(ptr noundef %37)
  br label %38

38:                                               ; preds = %31
  %39 = load i64, ptr %3, align 8
  %40 = add i64 %39, 1
  store i64 %40, ptr %3, align 8
  br label %23, !llvm.loop !10

41:                                               ; preds = %23
  br label %42

42:                                               ; preds = %41
  %43 = load ptr, ptr @Curl_cfree, align 8
  %44 = load ptr, ptr %2, align 8
  %45 = getelementptr inbounds %struct.Curl_easy, ptr %44, i32 0, i32 20
  %46 = getelementptr inbounds %struct.UrlState, ptr %45, i32 0, i32 13
  %47 = load ptr, ptr %46, align 8
  call void %43(ptr noundef %47)
  %48 = load ptr, ptr %2, align 8
  %49 = getelementptr inbounds %struct.Curl_easy, ptr %48, i32 0, i32 20
  %50 = getelementptr inbounds %struct.UrlState, ptr %49, i32 0, i32 13
  store ptr null, ptr %50, align 8
  br label %51

51:                                               ; preds = %42
  br label %52

52:                                               ; preds = %51, %14, %1
  %53 = load ptr, ptr @Curl_ssl, align 8
  %54 = getelementptr inbounds %struct.Curl_ssl, ptr %53, i32 0, i32 16
  %55 = load ptr, ptr %54, align 8
  %56 = load ptr, ptr %2, align 8
  call void %55(ptr noundef %56)
  ret void
}