; Function Attrs: nounwind uwtable
define dso_local void @Curl_ssl_close_all(ptr noundef %0) local_unnamed_addr #2 {
  %2 = getelementptr inbounds nuw i8, ptr %0, i64 3200
  %3 = load ptr, ptr %2, align 8
  %.not = icmp eq ptr %3, null
  br i1 %.not, label %21, label %4

4:                                                ; preds = %1
  %5 = getelementptr inbounds nuw i8, ptr %0, i64 208
  %6 = load ptr, ptr %5, align 8
  %.not11 = icmp eq ptr %6, null
  br i1 %.not11, label %11, label %7

7:                                                ; preds = %4
  %8 = getelementptr inbounds nuw i8, ptr %6, i64 4
  %9 = load i32, ptr %8, align 4
  %10 = and i32 %9, 16
  %.not12 = icmp eq i32 %10, 0
  br i1 %.not12, label %11, label %21

11:                                               ; preds = %7, %4
  %12 = getelementptr inbounds nuw i8, ptr %0, i64 1656
  %13 = load i64, ptr %12, align 8
  %.not14 = icmp eq i64 %13, 0
  br i1 %.not14, label %._crit_edge, label %.lr.ph

.lr.ph:                                           ; preds = %11, %.lr.ph
  %.013 = phi i64 [ %16, %.lr.ph ], [ 0, %11 ]
  %14 = load ptr, ptr %2, align 8
  %15 = getelementptr inbounds %struct.Curl_ssl_session, ptr %14, i64 %.013
  tail call void @Curl_ssl_kill_session(ptr noundef %15)
  %16 = add nuw i64 %.013, 1
  %17 = load i64, ptr %12, align 8
  %18 = icmp ult i64 %16, %17
  br i1 %18, label %.lr.ph, label %._crit_edge.loopexit, !llvm.loop !10

._crit_edge.loopexit:                             ; preds = %.lr.ph
  %.pre = load ptr, ptr %2, align 8
  br label %._crit_edge

._crit_edge:                                      ; preds = %._crit_edge.loopexit, %11
  %19 = phi ptr [ %.pre, %._crit_edge.loopexit ], [ %3, %11 ]
  %20 = load ptr, ptr @Curl_cfree, align 8
  tail call void %20(ptr noundef %19) #18
  store ptr null, ptr %2, align 8
  br label %21

21:                                               ; preds = %._crit_edge, %7, %1
  %22 = load ptr, ptr @Curl_ssl, align 8
  %23 = getelementptr inbounds nuw i8, ptr %22, i64 136
  %24 = load ptr, ptr %23, align 8
  tail call void %24(ptr noundef nonnull %0) #18
  ret void
}